; Function Attrs: mustprogress nofree norecurse nounwind willreturn uwtable
define i64 @PaUtil_GetRingBufferWriteRegions(ptr noundef %0, i64 noundef %1, ptr noundef writeonly captures(none) initializes((0, 8)) %2, ptr noundef writeonly captures(none) initializes((0, 8)) %3, ptr noundef writeonly captures(none) initializes((0, 8)) %4, ptr noundef writeonly captures(none) initializes((0, 8)) %5) local_unnamed_addr #2 {
  %7 = load i64, ptr %0, align 8, !tbaa !3
  %8 = getelementptr inbounds nuw i8, ptr %0, i64 8
  %9 = load volatile i64, ptr %8, align 8, !tbaa !12
  %10 = getelementptr inbounds nuw i8, ptr %0, i64 16
  %11 = load volatile i64, ptr %10, align 8, !tbaa !11
  %12 = sub nsw i64 %9, %11
  %13 = getelementptr inbounds nuw i8, ptr %0, i64 24
  %14 = load i64, ptr %13, align 8, !tbaa !13
  %15 = and i64 %12, %14
  %16 = sub nsw i64 %7, %15
  %spec.select = tail call i64 @llvm.smin.i64(i64 %1, i64 %16)
  %17 = load volatile i64, ptr %8, align 8, !tbaa !12
  %18 = getelementptr inbounds nuw i8, ptr %0, i64 32
  %19 = load i64, ptr %18, align 8, !tbaa !14
  %20 = and i64 %19, %17
  %21 = add nsw i64 %20, %spec.select
  %22 = icmp sgt i64 %21, %7
  br i1 %22, label %23, label %33

23:                                               ; preds = %6
  %24 = sub nsw i64 %7, %20
  %25 = getelementptr inbounds nuw i8, ptr %0, i64 48
  %26 = load ptr, ptr %25, align 8, !tbaa !10
  %27 = getelementptr inbounds nuw i8, ptr %0, i64 40
  %28 = load i64, ptr %27, align 8, !tbaa !15
  %29 = mul nsw i64 %28, %20
  %30 = getelementptr inbounds i8, ptr %26, i64 %29
  store ptr %30, ptr %2, align 8, !tbaa !16
  %31 = load ptr, ptr %25, align 8, !tbaa !10
  %32 = sub nsw i64 %spec.select, %24
  br label %40

33:                                               ; preds = %6
  %34 = getelementptr inbounds nuw i8, ptr %0, i64 48
  %35 = load ptr, ptr %34, align 8, !tbaa !10
  %36 = getelementptr inbounds nuw i8, ptr %0, i64 40
  %37 = load i64, ptr %36, align 8, !tbaa !15
  %38 = mul nsw i64 %37, %20
  %39 = getelementptr inbounds i8, ptr %35, i64 %38
  store ptr %39, ptr %2, align 8, !tbaa !16
  br label %40

40:                                               ; preds = %33, %23
  %spec.select.sink = phi i64 [ %24, %23 ], [ %spec.select, %33 ]
  %.sink = phi ptr [ %31, %23 ], [ null, %33 ]
  %storemerge = phi i64 [ %32, %23 ], [ 0, %33 ]
  store i64 %spec.select.sink, ptr %3, align 8, !tbaa !17
  store ptr %.sink, ptr %4, align 8, !tbaa !16
  store i64 %storemerge, ptr %5, align 8, !tbaa !17
  %.not = icmp eq i64 %7, %15
  br i1 %.not, label %42, label %41

41:                                               ; preds = %40
  fence seq_cst
  br label %42

42:                                               ; preds = %41, %40
  ret i64 %spec.select
}